; Function Attrs: nounwind uwtable
define noundef ptr @Sat_MmStepEntryFetch(ptr noundef captures(none) %0, i32 noundef %1) local_unnamed_addr #2 {
  %3 = icmp eq i32 %1, 0
  br i1 %3, label %41, label %4

4:                                                ; preds = %2
  %5 = getelementptr inbounds nuw i8, ptr %0, i64 16
  %6 = load i32, ptr %5, align 8, !tbaa !45
  %7 = icmp sgt i32 %1, %6
  br i1 %7, label %8, label %34

8:                                                ; preds = %4
  %9 = getelementptr inbounds nuw i8, ptr %0, i64 36
  %10 = load i32, ptr %9, align 4, !tbaa !51
  %11 = getelementptr inbounds nuw i8, ptr %0, i64 32
  %12 = load i32, ptr %11, align 8, !tbaa !50
  %13 = icmp eq i32 %10, %12
  br i1 %13, label %14, label %._crit_edge

._crit_edge:                                      ; preds = %8
  %.phi.trans.insert = getelementptr inbounds nuw i8, ptr %0, i64 40
  %.pre = load ptr, ptr %.phi.trans.insert, align 8, !tbaa !52
  br label %26

14:                                               ; preds = %8
  %15 = shl nsw i32 %10, 1
  store i32 %15, ptr %11, align 8, !tbaa !50
  %16 = getelementptr inbounds nuw i8, ptr %0, i64 40
  %17 = load ptr, ptr %16, align 8, !tbaa !52
  %.not = icmp eq ptr %17, null
  %18 = sext i32 %15 to i64
  %19 = shl nsw i64 %18, 3
  br i1 %.not, label %22, label %20

20:                                               ; preds = %14
  %21 = tail call ptr @realloc(ptr noundef nonnull %17, i64 noundef %19) #16
  %.pre21.pre = load i32, ptr %9, align 4, !tbaa !51
  br label %24

22:                                               ; preds = %14
  %23 = tail call noalias ptr @malloc(i64 noundef %19) #14
  br label %24

24:                                               ; preds = %22, %20
  %.pre21 = phi i32 [ %.pre21.pre, %20 ], [ %10, %22 ]
  %25 = phi ptr [ %21, %20 ], [ %23, %22 ]
  store ptr %25, ptr %16, align 8, !tbaa !52
  br label %26

26:                                               ; preds = %._crit_edge, %24
  %27 = phi i32 [ %10, %._crit_edge ], [ %.pre21, %24 ]
  %28 = phi ptr [ %.pre, %._crit_edge ], [ %25, %24 ]
  %29 = sext i32 %1 to i64
  %30 = tail call noalias ptr @malloc(i64 noundef %29) #14
  %31 = add nsw i32 %27, 1
  store i32 %31, ptr %9, align 4, !tbaa !51
  %32 = sext i32 %27 to i64
  %33 = getelementptr inbounds ptr, ptr %28, i64 %32
  store ptr %30, ptr %33, align 8, !tbaa !19
  br label %41

34:                                               ; preds = %4
  %35 = getelementptr inbounds nuw i8, ptr %0, i64 24
  %36 = load ptr, ptr %35, align 8, !tbaa !46
  %37 = sext i32 %1 to i64
  %38 = getelementptr inbounds ptr, ptr %36, i64 %37
  %39 = load ptr, ptr %38, align 8, !tbaa !42
  %40 = tail call ptr @Sat_MmFixedEntryFetch(ptr noundef %39)
  br label %41

41:                                               ; preds = %2, %34, %26
  %.0 = phi ptr [ %30, %26 ], [ %40, %34 ], [ null, %2 ]
  ret ptr %.0
}